; Function Attrs: mustprogress uwtable
define hidden noundef zeroext i1 @_ZNK6google8protobuf10TextFormat7Printer26PrintUnknownFieldsToStringERKNS0_15UnknownFieldSetEPNSt7__cxx1112basic_stringIcSt11char_traitsIcESaIcEEE(ptr noundef nonnull align 8 dereferenceable(136) %0, ptr noundef nonnull readonly align 8 captures(none) dereferenceable(24) %1, ptr noundef initializes((8, 16)) %2) local_unnamed_addr #3 align 2 personality ptr @__gxx_personality_v0 {
  %4 = alloca %"class.google::protobuf::TextFormat::Printer::TextGenerator", align 8
  %5 = alloca %"class.google::protobuf::io::StringOutputStream", align 8
  %6 = getelementptr inbounds nuw i8, ptr %2, i64 8
  store i64 0, ptr %6, align 8, !tbaa !9
  %7 = load ptr, ptr %2, align 8, !tbaa !48
  store i8 0, ptr %7, align 1, !tbaa !12
  call void @llvm.lifetime.start.p0(i64 16, ptr nonnull %5) #31
  call void @_ZN6google8protobuf2io18StringOutputStreamC1EPNSt7__cxx1112basic_stringIcSt11char_traitsIcESaIcEEE(ptr noundef nonnull align 8 dereferenceable(16) %5, ptr noundef nonnull %2)
  call void @llvm.lifetime.start.p0(i64 40, ptr nonnull %4) #31
  %8 = load i32, ptr %0, align 8, !tbaa !51
  store ptr getelementptr inbounds nuw inrange(-16, 48) (i8, ptr @_ZTVN6google8protobuf10TextFormat7Printer13TextGeneratorE, i64 16), ptr %4, align 8, !tbaa !24
  %9 = getelementptr inbounds nuw i8, ptr %4, i64 8
  store ptr %5, ptr %9, align 8, !tbaa !52
  %10 = getelementptr inbounds nuw i8, ptr %4, i64 16
  store ptr null, ptr %10, align 8, !tbaa !56
  %11 = getelementptr inbounds nuw i8, ptr %4, i64 24
  store i32 0, ptr %11, align 8, !tbaa !57
  %12 = getelementptr inbounds nuw i8, ptr %4, i64 28
  store i8 1, ptr %12, align 4, !tbaa !58
  %13 = getelementptr inbounds nuw i8, ptr %4, i64 29
  store i8 0, ptr %13, align 1, !tbaa !59
  %14 = getelementptr inbounds nuw i8, ptr %4, i64 30
  store i8 0, ptr %14, align 2, !tbaa !60
  %15 = getelementptr inbounds nuw i8, ptr %4, i64 32
  store i32 %8, ptr %15, align 8, !tbaa !61
  %16 = getelementptr inbounds nuw i8, ptr %4, i64 36
  store i32 %8, ptr %16, align 4, !tbaa !62
  invoke void @_ZNK6google8protobuf10TextFormat7Printer18PrintUnknownFieldsERKNS0_15UnknownFieldSetEPNS2_13TextGeneratorEi(ptr noundef nonnull align 8 dereferenceable(136) %0, ptr noundef nonnull readonly align 8 dereferenceable(24) %1, ptr noundef nonnull %4, i32 noundef 10)
          to label %17 unwind label %.body

17:                                               ; preds = %3
  %18 = load i8, ptr %13, align 1, !tbaa !59, !range !49, !noundef !50
  %19 = trunc nuw i8 %18 to i1
  store ptr getelementptr inbounds nuw inrange(-16, 48) (i8, ptr @_ZTVN6google8protobuf10TextFormat7Printer13TextGeneratorE, i64 16), ptr %4, align 8, !tbaa !24
  br i1 %19, label %32, label %20

20:                                               ; preds = %17
  %21 = load i32, ptr %11, align 8, !tbaa !57
  %22 = icmp sgt i32 %21, 0
  br i1 %22, label %23, label %32

23:                                               ; preds = %20
  %24 = load ptr, ptr %9, align 8, !tbaa !52
  %25 = load ptr, ptr %24, align 8, !tbaa !24
  %26 = getelementptr inbounds nuw i8, ptr %25, i64 24
  %27 = load ptr, ptr %26, align 8
  invoke void %27(ptr noundef nonnull align 8 dereferenceable(8) %24, i32 noundef %21)
          to label %32 unwind label %28

28:                                               ; preds = %23
  %29 = landingpad { ptr, i32 }
          catch ptr null
  %30 = extractvalue { ptr, i32 } %29, 0
  call void @__clang_call_terminate(ptr %30) #33
  unreachable

.body:                                            ; preds = %3
  %31 = landingpad { ptr, i32 }
          cleanup
  call void @_ZN6google8protobuf10TextFormat7Printer13TextGeneratorD2Ev(ptr noundef nonnull align 8 dereferenceable(40) %4) #31
  call void @llvm.lifetime.end.p0(i64 40, ptr nonnull %4) #31
  call void @llvm.lifetime.end.p0(i64 16, ptr nonnull %5) #31
  resume { ptr, i32 } %31

32:                                               ; preds = %23, %20, %17
  %33 = xor i1 %19, true
  call void @llvm.lifetime.end.p0(i64 40, ptr nonnull %4) #31
  call void @llvm.lifetime.end.p0(i64 16, ptr nonnull %5) #31
  ret i1 %33
}